target datalayout = "e-m:e-p270:32:32-p271:32:32-p272:64:64-i64:64-i128:128-f80:128-n8:16:32:64-S128"
target triple = "x86_64-pc-linux-gnu"

@.str = private unnamed_addr constant [4 x i8] c"I/O\00", align 1
@.str.1 = private unnamed_addr constant [5 x i8] c"read\00", align 1
@.str.2 = private unnamed_addr constant [11 x i8] c"read_aiger\00", align 1
@.str.3 = private unnamed_addr constant [9 x i8] c"read_baf\00", align 1
@.str.4 = private unnamed_addr constant [11 x i8] c"read_bblif\00", align 1
@.str.5 = private unnamed_addr constant [10 x i8] c"read_blif\00", align 1
@.str.6 = private unnamed_addr constant [13 x i8] c"read_blif_mv\00", align 1
@.str.7 = private unnamed_addr constant [11 x i8] c"read_bench\00", align 1
@.str.8 = private unnamed_addr constant [9 x i8] c"read_cex\00", align 1
@.str.9 = private unnamed_addr constant [9 x i8] c"read_dsd\00", align 1
@.str.10 = private unnamed_addr constant [13 x i8] c"read_formula\00", align 1
@.str.11 = private unnamed_addr constant [9 x i8] c"read_eqn\00", align 1
@.str.12 = private unnamed_addr constant [10 x i8] c"read_fins\00", align 1
@.str.13 = private unnamed_addr constant [10 x i8] c"read_init\00", align 1
@.str.14 = private unnamed_addr constant [9 x i8] c"read_pla\00", align 1
@.str.15 = private unnamed_addr constant [11 x i8] c"read_plamo\00", align 1
@.str.16 = private unnamed_addr constant [11 x i8] c"read_truth\00", align 1
@.str.17 = private unnamed_addr constant [9 x i8] c"read_cnf\00", align 1
@.str.18 = private unnamed_addr constant [13 x i8] c"read_verilog\00", align 1
@.str.19 = private unnamed_addr constant [12 x i8] c"read_status\00", align 1
@.str.20 = private unnamed_addr constant [10 x i8] c"&read_gig\00", align 1
@.str.21 = private unnamed_addr constant [10 x i8] c"read_json\00", align 1
@.str.22 = private unnamed_addr constant [8 x i8] c"read_sf\00", align 1
@.str.23 = private unnamed_addr constant [9 x i8] c"read_rom\00", align 1
@.str.24 = private unnamed_addr constant [6 x i8] c"write\00", align 1
@.str.25 = private unnamed_addr constant [10 x i8] c"write_hie\00", align 1
@.str.26 = private unnamed_addr constant [12 x i8] c"write_aiger\00", align 1
@.str.27 = private unnamed_addr constant [16 x i8] c"write_aiger_cex\00", align 1
@.str.28 = private unnamed_addr constant [10 x i8] c"write_baf\00", align 1
@.str.29 = private unnamed_addr constant [12 x i8] c"write_bblif\00", align 1
@.str.30 = private unnamed_addr constant [11 x i8] c"write_blif\00", align 1
@.str.31 = private unnamed_addr constant [14 x i8] c"write_blif_mv\00", align 1
@.str.32 = private unnamed_addr constant [12 x i8] c"write_bench\00", align 1
@.str.33 = private unnamed_addr constant [11 x i8] c"write_book\00", align 1
@.str.34 = private unnamed_addr constant [14 x i8] c"write_cellnet\00", align 1
@.str.35 = private unnamed_addr constant [10 x i8] c"write_cex\00", align 1
@.str.36 = private unnamed_addr constant [10 x i8] c"write_cnf\00", align 1
@.str.37 = private unnamed_addr constant [11 x i8] c"&write_cnf\00", align 1
@.str.38 = private unnamed_addr constant [10 x i8] c"write_dot\00", align 1
@.str.39 = private unnamed_addr constant [10 x i8] c"write_eqn\00", align 1
@.str.40 = private unnamed_addr constant [15 x i8] c"write_edgelist\00", align 1
@.str.41 = private unnamed_addr constant [10 x i8] c"write_gml\00", align 1
@.str.42 = private unnamed_addr constant [10 x i8] c"write_pla\00", align 1
@.str.43 = private unnamed_addr constant [14 x i8] c"write_verilog\00", align 1
@.str.44 = private unnamed_addr constant [17 x i8] c"write_sorter_cnf\00", align 1
@.str.45 = private unnamed_addr constant [12 x i8] c"write_truth\00", align 1
@.str.46 = private unnamed_addr constant [14 x i8] c"&write_truths\00", align 1
@.str.47 = private unnamed_addr constant [13 x i8] c"write_status\00", align 1
@.str.48 = private unnamed_addr constant [10 x i8] c"write_smv\00", align 1
@.str.49 = private unnamed_addr constant [11 x i8] c"write_json\00", align 1
@.str.50 = private unnamed_addr constant [13 x i8] c"&write_resub\00", align 1

; Function Attrs: nounwind uwtable
define void @Io_Init(ptr noundef %0) #0 {
  %2 = alloca ptr, align 8
  store ptr %0, ptr %2, align 8, !tbaa !3
  %3 = load ptr, ptr %2, align 8, !tbaa !3
  call void @Cmd_CommandAdd(ptr noundef %3, ptr noundef @.str, ptr noundef @.str.1, ptr noundef @IoCommandRead, i32 noundef 1)
  %4 = load ptr, ptr %2, align 8, !tbaa !3
  call void @Cmd_CommandAdd(ptr noundef %4, ptr noundef @.str, ptr noundef @.str.2, ptr noundef @IoCommandReadAiger, i32 noundef 1)
  %5 = load ptr, ptr %2, align 8, !tbaa !3
  call void @Cmd_CommandAdd(ptr noundef %5, ptr noundef @.str, ptr noundef @.str.3, ptr noundef @IoCommandReadBaf, i32 noundef 1)
  %6 = load ptr, ptr %2, align 8, !tbaa !3
  call void @Cmd_CommandAdd(ptr noundef %6, ptr noundef @.str, ptr noundef @.str.4, ptr noundef @IoCommandReadBblif, i32 noundef 1)
  %7 = load ptr, ptr %2, align 8, !tbaa !3
  call void @Cmd_CommandAdd(ptr noundef %7, ptr noundef @.str, ptr noundef @.str.5, ptr noundef @IoCommandReadBlif, i32 noundef 1)
  %8 = load ptr, ptr %2, align 8, !tbaa !3
  call void @Cmd_CommandAdd(ptr noundef %8, ptr noundef @.str, ptr noundef @.str.6, ptr noundef @IoCommandReadBlifMv, i32 noundef 1)
  %9 = load ptr, ptr %2, align 8, !tbaa !3
  call void @Cmd_CommandAdd(ptr noundef %9, ptr noundef @.str, ptr noundef @.str.7, ptr noundef @IoCommandReadBench, i32 noundef 1)
  %10 = load ptr, ptr %2, align 8, !tbaa !3
  call void @Cmd_CommandAdd(ptr noundef %10, ptr noundef @.str, ptr noundef @.str.8, ptr noundef @IoCommandReadCex, i32 noundef 1)
  %11 = load ptr, ptr %2, align 8, !tbaa !3
  call void @Cmd_CommandAdd(ptr noundef %11, ptr noundef @.str, ptr noundef @.str.9, ptr noundef @IoCommandReadDsd, i32 noundef 1)
  %12 = load ptr, ptr %2, align 8, !tbaa !3
  call void @Cmd_CommandAdd(ptr noundef %12, ptr noundef @.str, ptr noundef @.str.10, ptr noundef @IoCommandReadDsd, i32 noundef 1)
  %13 = load ptr, ptr %2, align 8, !tbaa !3
  call void @Cmd_CommandAdd(ptr noundef %13, ptr noundef @.str, ptr noundef @.str.11, ptr noundef @IoCommandReadEqn, i32 noundef 1)
  %14 = load ptr, ptr %2, align 8, !tbaa !3
  call void @Cmd_CommandAdd(ptr noundef %14, ptr noundef @.str, ptr noundef @.str.12, ptr noundef @IoCommandReadFins, i32 noundef 0)
  %15 = load ptr, ptr %2, align 8, !tbaa !3
  call void @Cmd_CommandAdd(ptr noundef %15, ptr noundef @.str, ptr noundef @.str.13, ptr noundef @IoCommandReadInit, i32 noundef 1)
  %16 = load ptr, ptr %2, align 8, !tbaa !3
  call void @Cmd_CommandAdd(ptr noundef %16, ptr noundef @.str, ptr noundef @.str.14, ptr noundef @IoCommandReadPla, i32 noundef 1)
  %17 = load ptr, ptr %2, align 8, !tbaa !3
  call void @Cmd_CommandAdd(ptr noundef %17, ptr noundef @.str, ptr noundef @.str.15, ptr noundef @IoCommandReadPlaMo, i32 noundef 1)
  %18 = load ptr, ptr %2, align 8, !tbaa !3
  call void @Cmd_CommandAdd(ptr noundef %18, ptr noundef @.str, ptr noundef @.str.16, ptr noundef @IoCommandReadTruth, i32 noundef 1)
  %19 = load ptr, ptr %2, align 8, !tbaa !3
  call void @Cmd_CommandAdd(ptr noundef %19, ptr noundef @.str, ptr noundef @.str.17, ptr noundef @IoCommandReadCnf, i32 noundef 1)
  %20 = load ptr, ptr %2, align 8, !tbaa !3
  call void @Cmd_CommandAdd(ptr noundef %20, ptr noundef @.str, ptr noundef @.str.18, ptr noundef @IoCommandReadVerilog, i32 noundef 1)
  %21 = load ptr, ptr %2, align 8, !tbaa !3
  call void @Cmd_CommandAdd(ptr noundef %21, ptr noundef @.str, ptr noundef @.str.19, ptr noundef @IoCommandReadStatus, i32 noundef 0)
  %22 = load ptr, ptr %2, align 8, !tbaa !3
  call void @Cmd_CommandAdd(ptr noundef %22, ptr noundef @.str, ptr noundef @.str.20, ptr noundef @IoCommandReadGig, i32 noundef 0)
  %23 = load ptr, ptr %2, align 8, !tbaa !3
  call void @Cmd_CommandAdd(ptr noundef %23, ptr noundef @.str, ptr noundef @.str.21, ptr noundef @IoCommandReadJson, i32 noundef 0)
  %24 = load ptr, ptr %2, align 8, !tbaa !3
  call void @Cmd_CommandAdd(ptr noundef %24, ptr noundef @.str, ptr noundef @.str.22, ptr noundef @IoCommandReadSF, i32 noundef 0)
  %25 = load ptr, ptr %2, align 8, !tbaa !3
  call void @Cmd_CommandAdd(ptr noundef %25, ptr noundef @.str, ptr noundef @.str.23, ptr noundef @IoCommandReadRom, i32 noundef 1)
  %26 = load ptr, ptr %2, align 8, !tbaa !3
  call void @Cmd_CommandAdd(ptr noundef %26, ptr noundef @.str, ptr noundef @.str.24, ptr noundef @IoCommandWrite, i32 noundef 0)
  %27 = load ptr, ptr %2, align 8, !tbaa !3
  call void @Cmd_CommandAdd(ptr noundef %27, ptr noundef @.str, ptr noundef @.str.25, ptr noundef @IoCommandWriteHie, i32 noundef 0)
  %28 = load ptr, ptr %2, align 8, !tbaa !3
  call void @Cmd_CommandAdd(ptr noundef %28, ptr noundef @.str, ptr noundef @.str.26, ptr noundef @IoCommandWriteAiger, i32 noundef 0)
  %29 = load ptr, ptr %2, align 8, !tbaa !3
  call void @Cmd_CommandAdd(ptr noundef %29, ptr noundef @.str, ptr noundef @.str.27, ptr noundef @IoCommandWriteAigerCex, i32 noundef 0)
  %30 = load ptr, ptr %2, align 8, !tbaa !3
  call void @Cmd_CommandAdd(ptr noundef %30, ptr noundef @.str, ptr noundef @.str.28, ptr noundef @IoCommandWriteBaf, i32 noundef 0)
  %31 = load ptr, ptr %2, align 8, !tbaa !3
  call void @Cmd_CommandAdd(ptr noundef %31, ptr noundef @.str, ptr noundef @.str.29, ptr noundef @IoCommandWriteBblif, i32 noundef 0)
  %32 = load ptr, ptr %2, align 8, !tbaa !3
  call void @Cmd_CommandAdd(ptr noundef %32, ptr noundef @.str, ptr noundef @.str.30, ptr noundef @IoCommandWriteBlif, i32 noundef 0)
  %33 = load ptr, ptr %2, align 8, !tbaa !3
  call void @Cmd_CommandAdd(ptr noundef %33, ptr noundef @.str, ptr noundef @.str.31, ptr noundef @IoCommandWriteBlifMv, i32 noundef 0)
  %34 = load ptr, ptr %2, align 8, !tbaa !3
  call void @Cmd_CommandAdd(ptr noundef %34, ptr noundef @.str, ptr noundef @.str.32, ptr noundef @IoCommandWriteBench, i32 noundef 0)
  %35 = load ptr, ptr %2, align 8, !tbaa !3
  call void @Cmd_CommandAdd(ptr noundef %35, ptr noundef @.str, ptr noundef @.str.33, ptr noundef @IoCommandWriteBook, i32 noundef 0)
  %36 = load ptr, ptr %2, align 8, !tbaa !3
  call void @Cmd_CommandAdd(ptr noundef %36, ptr noundef @.str, ptr noundef @.str.34, ptr noundef @IoCommandWriteCellNet, i32 noundef 0)
  %37 = load ptr, ptr %2, align 8, !tbaa !3
  call void @Cmd_CommandAdd(ptr noundef %37, ptr noundef @.str, ptr noundef @.str.35, ptr noundef @IoCommandWriteCex, i32 noundef 0)
  %38 = load ptr, ptr %2, align 8, !tbaa !3
  call void @Cmd_CommandAdd(ptr noundef %38, ptr noundef @.str, ptr noundef @.str.36, ptr noundef @IoCommandWriteCnf, i32 noundef 0)
  %39 = load ptr, ptr %2, align 8, !tbaa !3
  call void @Cmd_CommandAdd(ptr noundef %39, ptr noundef @.str, ptr noundef @.str.37, ptr noundef @IoCommandWriteCnf2, i32 noundef 0)
  %40 = load ptr, ptr %2, align 8, !tbaa !3
  call void @Cmd_CommandAdd(ptr noundef %40, ptr noundef @.str, ptr noundef @.str.38, ptr noundef @IoCommandWriteDot, i32 noundef 0)
  %41 = load ptr, ptr %2, align 8, !tbaa !3
  call void @Cmd_CommandAdd(ptr noundef %41, ptr noundef @.str, ptr noundef @.str.39, ptr noundef @IoCommandWriteEqn, i32 noundef 0)
  %42 = load ptr, ptr %2, align 8, !tbaa !3
  call void @Cmd_CommandAdd(ptr noundef %42, ptr noundef @.str, ptr noundef @.str.40, ptr noundef @IoCommandWriteEdgelist, i32 noundef 0)
  %43 = load ptr, ptr %2, align 8, !tbaa !3
  call void @Cmd_CommandAdd(ptr noundef %43, ptr noundef @.str, ptr noundef @.str.41, ptr noundef @IoCommandWriteGml, i32 noundef 0)
  %44 = load ptr, ptr %2, align 8, !tbaa !3
  call void @Cmd_CommandAdd(ptr noundef %44, ptr noundef @.str, ptr noundef @.str.42, ptr noundef @IoCommandWritePla, i32 noundef 0)
  %45 = load ptr, ptr %2, align 8, !tbaa !3
  call void @Cmd_CommandAdd(ptr noundef %45, ptr noundef @.str, ptr noundef @.str.43, ptr noundef @IoCommandWriteVerilog, i32 noundef 0)
  %46 = load ptr, ptr %2, align 8, !tbaa !3
  call void @Cmd_CommandAdd(ptr noundef %46, ptr noundef @.str, ptr noundef @.str.44, ptr noundef @IoCommandWriteSortCnf, i32 noundef 0)
  %47 = load ptr, ptr %2, align 8, !tbaa !3
  call void @Cmd_CommandAdd(ptr noundef %47, ptr noundef @.str, ptr noundef @.str.45, ptr noundef @IoCommandWriteTruth, i32 noundef 0)
  %48 = load ptr, ptr %2, align 8, !tbaa !3
  call void @Cmd_CommandAdd(ptr noundef %48, ptr noundef @.str, ptr noundef @.str.46, ptr noundef @IoCommandWriteTruths, i32 noundef 0)
  %49 = load ptr, ptr %2, align 8, !tbaa !3
  call void @Cmd_CommandAdd(ptr noundef %49, ptr noundef @.str, ptr noundef @.str.47, ptr noundef @IoCommandWriteStatus, i32 noundef 0)
  %50 = load ptr, ptr %2, align 8, !tbaa !3
  call void @Cmd_CommandAdd(ptr noundef %50, ptr noundef @.str, ptr noundef @.str.48, ptr noundef @IoCommandWriteSmv, i32 noundef 0)
  %51 = load ptr, ptr %2, align 8, !tbaa !3
  call void @Cmd_CommandAdd(ptr noundef %51, ptr noundef @.str, ptr noundef @.str.49, ptr noundef @IoCommandWriteJson, i32 noundef 0)
  %52 = load ptr, ptr %2, align 8, !tbaa !3
  call void @Cmd_CommandAdd(ptr noundef %52, ptr noundef @.str, ptr noundef @.str.50, ptr noundef @IoCommandWriteResub, i32 noundef 0)
  ret void
}