; Function Attrs: nounwind uwtable
define void @Io_Init(ptr noundef %0) local_unnamed_addr #0 {
  tail call void @Cmd_CommandAdd(ptr noundef %0, ptr noundef nonnull @.str, ptr noundef nonnull @.str.1, ptr noundef nonnull @IoCommandRead, i32 noundef 1) #18
  tail call void @Cmd_CommandAdd(ptr noundef %0, ptr noundef nonnull @.str, ptr noundef nonnull @.str.2, ptr noundef nonnull @IoCommandReadAiger, i32 noundef 1) #18
  tail call void @Cmd_CommandAdd(ptr noundef %0, ptr noundef nonnull @.str, ptr noundef nonnull @.str.3, ptr noundef nonnull @IoCommandReadBaf, i32 noundef 1) #18
  tail call void @Cmd_CommandAdd(ptr noundef %0, ptr noundef nonnull @.str, ptr noundef nonnull @.str.4, ptr noundef nonnull @IoCommandReadBblif, i32 noundef 1) #18
  tail call void @Cmd_CommandAdd(ptr noundef %0, ptr noundef nonnull @.str, ptr noundef nonnull @.str.5, ptr noundef nonnull @IoCommandReadBlif, i32 noundef 1) #18
  tail call void @Cmd_CommandAdd(ptr noundef %0, ptr noundef nonnull @.str, ptr noundef nonnull @.str.6, ptr noundef nonnull @IoCommandReadBlifMv, i32 noundef 1) #18
  tail call void @Cmd_CommandAdd(ptr noundef %0, ptr noundef nonnull @.str, ptr noundef nonnull @.str.7, ptr noundef nonnull @IoCommandReadBench, i32 noundef 1) #18
  tail call void @Cmd_CommandAdd(ptr noundef %0, ptr noundef nonnull @.str, ptr noundef nonnull @.str.8, ptr noundef nonnull @IoCommandReadCex, i32 noundef 1) #18
  tail call void @Cmd_CommandAdd(ptr noundef %0, ptr noundef nonnull @.str, ptr noundef nonnull @.str.9, ptr noundef nonnull @IoCommandReadDsd, i32 noundef 1) #18
  tail call void @Cmd_CommandAdd(ptr noundef %0, ptr noundef nonnull @.str, ptr noundef nonnull @.str.10, ptr noundef nonnull @IoCommandReadDsd, i32 noundef 1) #18
  tail call void @Cmd_CommandAdd(ptr noundef %0, ptr noundef nonnull @.str, ptr noundef nonnull @.str.11, ptr noundef nonnull @IoCommandReadEqn, i32 noundef 1) #18
  tail call void @Cmd_CommandAdd(ptr noundef %0, ptr noundef nonnull @.str, ptr noundef nonnull @.str.12, ptr noundef nonnull @IoCommandReadFins, i32 noundef 0) #18
  tail call void @Cmd_CommandAdd(ptr noundef %0, ptr noundef nonnull @.str, ptr noundef nonnull @.str.13, ptr noundef nonnull @IoCommandReadInit, i32 noundef 1) #18
  tail call void @Cmd_CommandAdd(ptr noundef %0, ptr noundef nonnull @.str, ptr noundef nonnull @.str.14, ptr noundef nonnull @IoCommandReadPla, i32 noundef 1) #18
  tail call void @Cmd_CommandAdd(ptr noundef %0, ptr noundef nonnull @.str, ptr noundef nonnull @.str.15, ptr noundef nonnull @IoCommandReadPlaMo, i32 noundef 1) #18
  tail call void @Cmd_CommandAdd(ptr noundef %0, ptr noundef nonnull @.str, ptr noundef nonnull @.str.16, ptr noundef nonnull @IoCommandReadTruth, i32 noundef 1) #18
  tail call void @Cmd_CommandAdd(ptr noundef %0, ptr noundef nonnull @.str, ptr noundef nonnull @.str.17, ptr noundef nonnull @IoCommandReadCnf, i32 noundef 1) #18
  tail call void @Cmd_CommandAdd(ptr noundef %0, ptr noundef nonnull @.str, ptr noundef nonnull @.str.18, ptr noundef nonnull @IoCommandReadVerilog, i32 noundef 1) #18
  tail call void @Cmd_CommandAdd(ptr noundef %0, ptr noundef nonnull @.str, ptr noundef nonnull @.str.19, ptr noundef nonnull @IoCommandReadStatus, i32 noundef 0) #18
  tail call void @Cmd_CommandAdd(ptr noundef %0, ptr noundef nonnull @.str, ptr noundef nonnull @.str.20, ptr noundef nonnull @IoCommandReadGig, i32 noundef 0) #18
  tail call void @Cmd_CommandAdd(ptr noundef %0, ptr noundef nonnull @.str, ptr noundef nonnull @.str.21, ptr noundef nonnull @IoCommandReadJson, i32 noundef 0) #18
  tail call void @Cmd_CommandAdd(ptr noundef %0, ptr noundef nonnull @.str, ptr noundef nonnull @.str.22, ptr noundef nonnull @IoCommandReadSF, i32 noundef 0) #18
  tail call void @Cmd_CommandAdd(ptr noundef %0, ptr noundef nonnull @.str, ptr noundef nonnull @.str.23, ptr noundef nonnull @IoCommandReadRom, i32 noundef 1) #18
  tail call void @Cmd_CommandAdd(ptr noundef %0, ptr noundef nonnull @.str, ptr noundef nonnull @.str.24, ptr noundef nonnull @IoCommandWrite, i32 noundef 0) #18
  tail call void @Cmd_CommandAdd(ptr noundef %0, ptr noundef nonnull @.str, ptr noundef nonnull @.str.25, ptr noundef nonnull @IoCommandWriteHie, i32 noundef 0) #18
  tail call void @Cmd_CommandAdd(ptr noundef %0, ptr noundef nonnull @.str, ptr noundef nonnull @.str.26, ptr noundef nonnull @IoCommandWriteAiger, i32 noundef 0) #18
  tail call void @Cmd_CommandAdd(ptr noundef %0, ptr noundef nonnull @.str, ptr noundef nonnull @.str.27, ptr noundef nonnull @IoCommandWriteAigerCex, i32 noundef 0) #18
  tail call void @Cmd_CommandAdd(ptr noundef %0, ptr noundef nonnull @.str, ptr noundef nonnull @.str.28, ptr noundef nonnull @IoCommandWriteBaf, i32 noundef 0) #18
  tail call void @Cmd_CommandAdd(ptr noundef %0, ptr noundef nonnull @.str, ptr noundef nonnull @.str.29, ptr noundef nonnull @IoCommandWriteBblif, i32 noundef 0) #18
  tail call void @Cmd_CommandAdd(ptr noundef %0, ptr noundef nonnull @.str, ptr noundef nonnull @.str.30, ptr noundef nonnull @IoCommandWriteBlif, i32 noundef 0) #18
  tail call void @Cmd_CommandAdd(ptr noundef %0, ptr noundef nonnull @.str, ptr noundef nonnull @.str.31, ptr noundef nonnull @IoCommandWriteBlifMv, i32 noundef 0) #18
  tail call void @Cmd_CommandAdd(ptr noundef %0, ptr noundef nonnull @.str, ptr noundef nonnull @.str.32, ptr noundef nonnull @IoCommandWriteBench, i32 noundef 0) #18
  tail call void @Cmd_CommandAdd(ptr noundef %0, ptr noundef nonnull @.str, ptr noundef nonnull @.str.33, ptr noundef nonnull @IoCommandWriteBook, i32 noundef 0) #18
  tail call void @Cmd_CommandAdd(ptr noundef %0, ptr noundef nonnull @.str, ptr noundef nonnull @.str.34, ptr noundef nonnull @IoCommandWriteCellNet, i32 noundef 0) #18
  tail call void @Cmd_CommandAdd(ptr noundef %0, ptr noundef nonnull @.str, ptr noundef nonnull @.str.35, ptr noundef nonnull @IoCommandWriteCex, i32 noundef 0) #18
  tail call void @Cmd_CommandAdd(ptr noundef %0, ptr noundef nonnull @.str, ptr noundef nonnull @.str.36, ptr noundef nonnull @IoCommandWriteCnf, i32 noundef 0) #18
  tail call void @Cmd_CommandAdd(ptr noundef %0, ptr noundef nonnull @.str, ptr noundef nonnull @.str.37, ptr noundef nonnull @IoCommandWriteCnf2, i32 noundef 0) #18
  tail call void @Cmd_CommandAdd(ptr noundef %0, ptr noundef nonnull @.str, ptr noundef nonnull @.str.38, ptr noundef nonnull @IoCommandWriteDot, i32 noundef 0) #18
  tail call void @Cmd_CommandAdd(ptr noundef %0, ptr noundef nonnull @.str, ptr noundef nonnull @.str.39, ptr noundef nonnull @IoCommandWriteEqn, i32 noundef 0) #18
  tail call void @Cmd_CommandAdd(ptr noundef %0, ptr noundef nonnull @.str, ptr noundef nonnull @.str.40, ptr noundef nonnull @IoCommandWriteEdgelist, i32 noundef 0) #18
  tail call void @Cmd_CommandAdd(ptr noundef %0, ptr noundef nonnull @.str, ptr noundef nonnull @.str.41, ptr noundef nonnull @IoCommandWriteGml, i32 noundef 0) #18
  tail call void @Cmd_CommandAdd(ptr noundef %0, ptr noundef nonnull @.str, ptr noundef nonnull @.str.42, ptr noundef nonnull @IoCommandWritePla, i32 noundef 0) #18
  tail call void @Cmd_CommandAdd(ptr noundef %0, ptr noundef nonnull @.str, ptr noundef nonnull @.str.43, ptr noundef nonnull @IoCommandWriteVerilog, i32 noundef 0) #18
  tail call void @Cmd_CommandAdd(ptr noundef %0, ptr noundef nonnull @.str, ptr noundef nonnull @.str.44, ptr noundef nonnull @IoCommandWriteSortCnf, i32 noundef 0) #18
  tail call void @Cmd_CommandAdd(ptr noundef %0, ptr noundef nonnull @.str, ptr noundef nonnull @.str.45, ptr noundef nonnull @IoCommandWriteTruth, i32 noundef 0) #18
  tail call void @Cmd_CommandAdd(ptr noundef %0, ptr noundef nonnull @.str, ptr noundef nonnull @.str.46, ptr noundef nonnull @IoCommandWriteTruths, i32 noundef 0) #18
  tail call void @Cmd_CommandAdd(ptr noundef %0, ptr noundef nonnull @.str, ptr noundef nonnull @.str.47, ptr noundef nonnull @IoCommandWriteStatus, i32 noundef 0) #18
  tail call void @Cmd_CommandAdd(ptr noundef %0, ptr noundef nonnull @.str, ptr noundef nonnull @.str.48, ptr noundef nonnull @IoCommandWriteSmv, i32 noundef 0) #18
  tail call void @Cmd_CommandAdd(ptr noundef %0, ptr noundef nonnull @.str, ptr noundef nonnull @.str.49, ptr noundef nonnull @IoCommandWriteJson, i32 noundef 0) #18
  tail call void @Cmd_CommandAdd(ptr noundef %0, ptr noundef nonnull @.str, ptr noundef nonnull @.str.50, ptr noundef nonnull @IoCommandWriteResub, i32 noundef 0) #18
  ret void
}